target datalayout = "e-m:e-p270:32:32-p271:32:32-p272:64:64-i64:64-i128:128-f80:128-n8:16:32:64-S128"
target triple = "x86_64-pc-linux-gnu"

%class.EllipticKeyPoint = type { %"class.cv::Point_", %"class.cv::Scalar_", %"class.cv::Size_", %"class.cv::Size_" }
%"class.cv::Point_" = type { float, float }
%"class.cv::Scalar_" = type { %"class.cv::Vec" }
%"class.cv::Vec" = type { %"class.cv::Matx" }
%"class.cv::Matx" = type { [4 x double] }
%"class.cv::Size_" = type { float, float }
%"class.cv::Mat_" = type { %"class.cv::Mat" }
%"class.cv::Mat" = type { i32, i32, i32, i32, ptr, ptr, ptr, ptr, ptr, ptr, %"struct.cv::MatSize", %"struct.cv::MatStep" }
%"struct.cv::MatSize" = type { ptr }
%"struct.cv::MatStep" = type { ptr, [2 x i64] }

; Function Attrs: mustprogress nounwind uwtable
define linkonce_odr hidden void @_ZN2cv4Mat_IdED2Ev(ptr noundef nonnull align 8 dereferenceable(96) %0) unnamed_addr #1 comdat align 2 {
  %2 = alloca ptr, align 8
  store ptr %0, ptr %2, align 8
  %3 = load ptr, ptr %2, align 8
  call void @_ZN2cv3MatD2Ev(ptr noundef nonnull align 8 dereferenceable(96) %3) #16
  ret void
}

; Function Attrs: mustprogress nounwind uwtable
define linkonce_odr hidden noundef nonnull align 8 dereferenceable(8) ptr @_ZN2cv4Mat_IdEclEii(ptr noundef nonnull align 8 dereferenceable(96) %0, i32 noundef %1, i32 noundef %2) #1 comdat align 2 {
  %4 = alloca ptr, align 8
  %5 = alloca i32, align 4
  %6 = alloca i32, align 4
  store ptr %0, ptr %4, align 8
  store i32 %1, ptr %5, align 4
  store i32 %2, ptr %6, align 4
  %7 = load ptr, ptr %4, align 8
  %8 = getelementptr inbounds %"class.cv::Mat", ptr %7, i32 0, i32 4
  %9 = load ptr, ptr %8, align 8
  %10 = getelementptr inbounds %"class.cv::Mat", ptr %7, i32 0, i32 11
  %11 = getelementptr inbounds %"struct.cv::MatStep", ptr %10, i32 0, i32 0
  %12 = load ptr, ptr %11, align 8
  %13 = getelementptr inbounds i64, ptr %12, i64 0
  %14 = load i64, ptr %13, align 8
  %15 = load i32, ptr %5, align 4
  %16 = sext i32 %15 to i64
  %17 = mul i64 %14, %16
  %18 = getelementptr inbounds i8, ptr %9, i64 %17
  %19 = load i32, ptr %6, align 4
  %20 = sext i32 %19 to i64
  %21 = getelementptr inbounds double, ptr %18, i64 %20
  ret ptr %21
}

; Function Attrs: mustprogress nounwind uwtable
define linkonce_odr hidden noundef nonnull align 8 dereferenceable(8) ptr @_ZNK2cv3VecIdLi4EEixEi(ptr noundef nonnull align 8 dereferenceable(32) %0, i32 noundef %1) #1 comdat align 2 {
  %3 = alloca ptr, align 8
  %4 = alloca i32, align 4
  store ptr %0, ptr %3, align 8
  store i32 %1, ptr %4, align 4
  %5 = load ptr, ptr %3, align 8
  %6 = getelementptr inbounds %"class.cv::Matx", ptr %5, i32 0, i32 0
  %7 = load i32, ptr %4, align 4
  %8 = sext i32 %7 to i64
  %9 = getelementptr inbounds [4 x double], ptr %6, i64 0, i64 %8
  ret ptr %9
}

; Function Attrs: mustprogress uwtable
define linkonce_odr hidden void @_ZN2cv4Mat_IdEC2Eii(ptr noundef nonnull align 8 dereferenceable(96) %0, i32 noundef %1, i32 noundef %2) unnamed_addr #0 comdat align 2 {
  %4 = alloca ptr, align 8
  %5 = alloca i32, align 4
  %6 = alloca i32, align 4
  store ptr %0, ptr %4, align 8
  store i32 %1, ptr %5, align 4
  store i32 %2, ptr %6, align 4
  %7 = load ptr, ptr %4, align 8
  %8 = load i32, ptr %5, align 4
  %9 = load i32, ptr %6, align 4
  call void @_ZN2cv3MatC2Eiii(ptr noundef nonnull align 8 dereferenceable(96) %7, i32 noundef %8, i32 noundef %9, i32 noundef 6)
  ret void
}

; Function Attrs: mustprogress uwtable
define hidden void @_ZN16EllipticKeyPoint22getSecondMomentsMatrixERKN2cv7Scalar_IdEE(ptr dead_on_unwind noalias writable sret(%"class.cv::Mat_") align 8 %0, ptr noundef nonnull align 8 dereferenceable(32) %1) #0 align 2 personality ptr @__gxx_personality_v0 {
  %3 = alloca ptr, align 8
  %4 = alloca ptr, align 8
  %5 = alloca i1, align 1
  %6 = alloca ptr, align 8
  %7 = alloca i32, align 4
  store ptr %0, ptr %3, align 8
  store ptr %1, ptr %4, align 8
  store i1 false, ptr %5, align 1
  call void @_ZN2cv4Mat_IdEC2Eii(ptr noundef nonnull align 8 dereferenceable(96) %0, i32 noundef 2, i32 noundef 2)
  %8 = load ptr, ptr %4, align 8
  %9 = invoke noundef nonnull align 8 dereferenceable(8) ptr @_ZNK2cv3VecIdLi4EEixEi(ptr noundef nonnull align 8 dereferenceable(32) %8, i32 noundef 0)
          to label %10 unwind label %29

10:                                               ; preds = %2
  %11 = load double, ptr %9, align 8
  %12 = invoke noundef nonnull align 8 dereferenceable(8) ptr @_ZN2cv4Mat_IdEclEii(ptr noundef nonnull align 8 dereferenceable(96) %0, i32 noundef 0, i32 noundef 0)
          to label %13 unwind label %29

13:                                               ; preds = %10
  store double %11, ptr %12, align 8
  %14 = load ptr, ptr %4, align 8
  %15 = invoke noundef nonnull align 8 dereferenceable(8) ptr @_ZNK2cv3VecIdLi4EEixEi(ptr noundef nonnull align 8 dereferenceable(32) %14, i32 noundef 1)
          to label %16 unwind label %29

16:                                               ; preds = %13
  %17 = load double, ptr %15, align 8
  %18 = invoke noundef nonnull align 8 dereferenceable(8) ptr @_ZN2cv4Mat_IdEclEii(ptr noundef nonnull align 8 dereferenceable(96) %0, i32 noundef 0, i32 noundef 1)
          to label %19 unwind label %29

19:                                               ; preds = %16
  store double %17, ptr %18, align 8
  %20 = invoke noundef nonnull align 8 dereferenceable(8) ptr @_ZN2cv4Mat_IdEclEii(ptr noundef nonnull align 8 dereferenceable(96) %0, i32 noundef 1, i32 noundef 0)
          to label %21 unwind label %29

21:                                               ; preds = %19
  store double %17, ptr %20, align 8
  %22 = load ptr, ptr %4, align 8
  %23 = invoke noundef nonnull align 8 dereferenceable(8) ptr @_ZNK2cv3VecIdLi4EEixEi(ptr noundef nonnull align 8 dereferenceable(32) %22, i32 noundef 2)
          to label %24 unwind label %29

24:                                               ; preds = %21
  %25 = load double, ptr %23, align 8
  %26 = invoke noundef nonnull align 8 dereferenceable(8) ptr @_ZN2cv4Mat_IdEclEii(ptr noundef nonnull align 8 dereferenceable(96) %0, i32 noundef 1, i32 noundef 1)
          to label %27 unwind label %29

27:                                               ; preds = %24
  store double %25, ptr %26, align 8
  store i1 true, ptr %5, align 1
  %28 = load i1, ptr %5, align 1
  br i1 %28, label %34, label %33

29:                                               ; preds = %24, %21, %19, %16, %13, %10, %2
  %30 = landingpad { ptr, i32 }
          cleanup
  %31 = extractvalue { ptr, i32 } %30, 0
  store ptr %31, ptr %6, align 8
  %32 = extractvalue { ptr, i32 } %30, 1
  store i32 %32, ptr %7, align 4
  call void @_ZN2cv4Mat_IdED2Ev(ptr noundef nonnull align 8 dereferenceable(96) %0) #16
  br label %35

33:                                               ; preds = %27
  call void @_ZN2cv4Mat_IdED2Ev(ptr noundef nonnull align 8 dereferenceable(96) %0) #16
  br label %34

34:                                               ; preds = %33, %27
  ret void

35:                                               ; preds = %29
  %36 = load ptr, ptr %6, align 8
  %37 = load i32, ptr %7, align 4
  %38 = insertvalue { ptr, i32 } poison, ptr %36, 0
  %39 = insertvalue { ptr, i32 } %38, i32 %37, 1
  resume { ptr, i32 } %39
}

; Function Attrs: mustprogress uwtable
define hidden void @_ZNK16EllipticKeyPoint22getSecondMomentsMatrixEv(ptr dead_on_unwind noalias writable sret(%"class.cv::Mat_") align 8 %0, ptr noundef nonnull align 8 dereferenceable(56) %1) #0 align 2 {
  %3 = alloca ptr, align 8
  %4 = alloca ptr, align 8
  store ptr %0, ptr %3, align 8
  store ptr %1, ptr %4, align 8
  %5 = load ptr, ptr %4, align 8
  %6 = getelementptr inbounds %class.EllipticKeyPoint, ptr %5, i32 0, i32 1
  call void @_ZN16EllipticKeyPoint22getSecondMomentsMatrixERKN2cv7Scalar_IdEE(ptr dead_on_unwind writable sret(%"class.cv::Mat_") align 8 %0, ptr noundef nonnull align 8 dereferenceable(32) %6)
  ret void
}