; Function Attrs: mustprogress uwtable
define hidden void @_ZNK16EllipticKeyPoint22getSecondMomentsMatrixEv(ptr dead_on_unwind noalias nonnull writable sret(%"class.cv::Mat_") align 8 %0, ptr nocapture noundef nonnull readonly align 8 dereferenceable(56) %1) local_unnamed_addr #5 align 2 personality ptr @__gxx_personality_v0 {
  %3 = getelementptr inbounds i8, ptr %1, i64 8
  tail call void @llvm.experimental.noalias.scope.decl(metadata !4)
  tail call void @_ZN2cv3MatC2Eiii(ptr noundef nonnull align 8 dereferenceable(96) %0, i32 noundef 2, i32 noundef 2, i32 noundef 6)
  %4 = load double, ptr %3, align 8, !noalias !4
  %5 = getelementptr inbounds i8, ptr %0, i64 16
  %6 = load ptr, ptr %5, align 8, !alias.scope !4
  %7 = getelementptr inbounds i8, ptr %0, i64 72
  store double %4, ptr %6, align 8
  %8 = getelementptr inbounds i8, ptr %1, i64 16
  %9 = load double, ptr %8, align 8, !noalias !4
  %10 = load ptr, ptr %5, align 8, !alias.scope !4
  %11 = getelementptr inbounds i8, ptr %10, i64 8
  store double %9, ptr %11, align 8
  %12 = load ptr, ptr %5, align 8, !alias.scope !4
  %13 = load ptr, ptr %7, align 8, !alias.scope !4
  %14 = load i64, ptr %13, align 8
  %15 = getelementptr inbounds i8, ptr %12, i64 %14
  store double %9, ptr %15, align 8
  %16 = getelementptr inbounds i8, ptr %1, i64 24
  %17 = load double, ptr %16, align 8, !noalias !4
  %18 = load ptr, ptr %5, align 8, !alias.scope !4
  %19 = load ptr, ptr %7, align 8, !alias.scope !4
  %20 = load i64, ptr %19, align 8
  %21 = getelementptr inbounds i8, ptr %18, i64 %20
  %22 = getelementptr inbounds i8, ptr %21, i64 8
  store double %17, ptr %22, align 8
  ret void
}